; Function Attrs: nofree norecurse nosync nounwind uwtable
define range(i64 0, 4294967296) i64 @zfp_decode_partial_block_strided_int32_3(ptr noundef readonly captures(none) %0, ptr noundef writeonly captures(none) %1, i64 noundef %2, i64 noundef %3, i64 noundef %4, i64 noundef %5, i64 noundef %6, i64 noundef %7) local_unnamed_addr #0 {
  %9 = alloca [64 x i32], align 256
  call void @llvm.lifetime.start.p0(i64 256, ptr nonnull %9) #6
  %10 = call i64 @zfp_decode_block_int32_3(ptr noundef %0, ptr noundef nonnull %9)
  %.not.i = icmp eq i64 %4, 0
  br i1 %.not.i, label %scatter_partial_int32_3.exit, label %.preheader33.lr.ph.i

.preheader33.lr.ph.i:                             ; preds = %8
  %.not56.i = icmp eq i64 %3, 0
  %11 = mul nsw i64 %5, %2
  %12 = sub nsw i64 %6, %11
  %13 = sub i64 4, %2
  %14 = mul nsw i64 %6, %3
  %15 = sub nsw i64 %7, %14
  %16 = shl i64 %3, 2
  %17 = sub i64 16, %16
  %.not57.i = icmp eq i64 %2, 0
  %or.cond.i = or i1 %.not57.i, %.not56.i
  br i1 %or.cond.i, label %scatter_partial_int32_3.exit, label %.preheader33.us.us.i

.preheader33.us.us.i:                             ; preds = %.preheader33.lr.ph.i, %._crit_edge41.split.us.us.us.i
  %.047.us.us.i = phi i64 [ %26, %._crit_edge41.split.us.us.us.i ], [ 0, %.preheader33.lr.ph.i ]
  %.02746.us.us.i = phi ptr [ %28, %._crit_edge41.split.us.us.us.i ], [ %9, %.preheader33.lr.ph.i ]
  %.02845.us.us.i = phi ptr [ %27, %._crit_edge41.split.us.us.us.i ], [ %1, %.preheader33.lr.ph.i ]
  br label %.preheader.us.us.us.i

.preheader.us.us.us.i:                            ; preds = %._crit_edge.us.us.us.i, %.preheader33.us.us.i
  %.02540.us.us.us.i = phi i64 [ 0, %.preheader33.us.us.i ], [ %23, %._crit_edge.us.us.us.i ]
  %.139.us.us.us.i = phi ptr [ %.02746.us.us.i, %.preheader33.us.us.i ], [ %25, %._crit_edge.us.us.us.i ]
  %.12938.us.us.us.i = phi ptr [ %.02845.us.us.i, %.preheader33.us.us.i ], [ %24, %._crit_edge.us.us.us.i ]
  br label %18

18:                                               ; preds = %18, %.preheader.us.us.us.i
  %.02636.us.us.us.i = phi i64 [ 0, %.preheader.us.us.us.i ], [ %20, %18 ]
  %.235.us.us.us.i = phi ptr [ %.139.us.us.us.i, %.preheader.us.us.us.i ], [ %22, %18 ]
  %.23034.us.us.us.i = phi ptr [ %.12938.us.us.us.i, %.preheader.us.us.us.i ], [ %21, %18 ]
  %19 = load i32, ptr %.235.us.us.us.i, align 4, !tbaa !23
  store i32 %19, ptr %.23034.us.us.us.i, align 4, !tbaa !23
  %20 = add nuw i64 %.02636.us.us.us.i, 1
  %21 = getelementptr inbounds i32, ptr %.23034.us.us.us.i, i64 %5
  %22 = getelementptr inbounds nuw i8, ptr %.235.us.us.us.i, i64 4
  %exitcond.not.i = icmp eq i64 %20, %2
  br i1 %exitcond.not.i, label %._crit_edge.us.us.us.i, label %18

._crit_edge.us.us.us.i:                           ; preds = %18
  %23 = add nuw i64 %.02540.us.us.us.i, 1
  %24 = getelementptr inbounds i32, ptr %21, i64 %12
  %25 = getelementptr inbounds nuw i32, ptr %22, i64 %13
  %exitcond65.not.i = icmp eq i64 %23, %3
  br i1 %exitcond65.not.i, label %._crit_edge41.split.us.us.us.i, label %.preheader.us.us.us.i

._crit_edge41.split.us.us.us.i:                   ; preds = %._crit_edge.us.us.us.i
  %26 = add nuw i64 %.047.us.us.i, 1
  %27 = getelementptr inbounds i32, ptr %24, i64 %15
  %28 = getelementptr inbounds nuw i32, ptr %25, i64 %17
  %exitcond66.not.i = icmp eq i64 %26, %4
  br i1 %exitcond66.not.i, label %scatter_partial_int32_3.exit, label %.preheader33.us.us.i

scatter_partial_int32_3.exit:                     ; preds = %._crit_edge41.split.us.us.us.i, %8, %.preheader33.lr.ph.i
  call void @llvm.lifetime.end.p0(i64 256, ptr nonnull %9) #6
  ret i64 %10
}